; Function Attrs: nounwind sspstrong uwtable
define i64 @ossl_bn_new(ptr noundef %0) local_unnamed_addr #0 {
  %2 = load i64, ptr @cBN, align 8, !tbaa !6
  %3 = tail call i64 @rb_data_typed_object_wrap(i64 noundef %2, ptr noundef null, ptr noundef nonnull @ossl_bn_type) #11
  %.not = icmp eq ptr %0, null
  br i1 %.not, label %6, label %4

4:                                                ; preds = %1
  %5 = tail call ptr @BN_dup(ptr noundef nonnull %0) #11
  br label %8

6:                                                ; preds = %1
  %7 = tail call ptr @BN_new() #11
  br label %8

8:                                                ; preds = %6, %4
  %9 = phi ptr [ %5, %4 ], [ %7, %6 ]
  %.not7 = icmp eq ptr %9, null
  br i1 %.not7, label %10, label %12

10:                                               ; preds = %8
  %11 = load i64, ptr @eBNError, align 8, !tbaa !6
  tail call void (i64, ptr, ...) @ossl_raise(i64 noundef %11, ptr noundef null) #12
  unreachable

12:                                               ; preds = %8
  %13 = inttoptr i64 %3 to ptr
  %14 = getelementptr inbounds nuw i8, ptr %13, i64 32
  store ptr %9, ptr %14, align 8, !tbaa !10
  ret i64 %3
}